target datalayout = "e-m:e-p270:32:32-p271:32:32-p272:64:64-i64:64-i128:128-f80:128-n8:16:32:64-S128"
target triple = "x86_64-pc-linux-gnu"

%class.symbol = type { ptr }
%class.goal2sat = type <{ ptr, i32, [4 x i8] }>
%"struct.goal2sat::imp" = type <{ %"class.sat::sat_internalizer", ptr, %class.pb_util, %class.svector, %class.svector.2, %class.obj_map, %class.u_map, %class.svector.6, %class.ref_vector, %class.obj_hashtable, ptr, ptr, ptr, ptr, i8, [7 x i8], i64, %class.ref_vector.11, %class.ref_vector.16, i8, i8, i8, [5 x i8], %class.svector.2, %class.symbol, i32, [4 x i8] }>
%"class.sat::sat_internalizer" = type { ptr }
%class.pb_util = type { ptr, i32, %class.vector, %class.vector.0, %class.rational }
%class.vector = type { ptr }
%class.vector.0 = type { ptr }
%class.rational = type { %class.mpq }
%class.mpq = type { %class.mpz, %class.mpz }
%class.mpz = type { i32, i8, ptr }
%class.svector = type { %class.vector.1 }
%class.vector.1 = type { ptr }
%class.obj_map = type { %class.core_hashtable }
%class.core_hashtable = type <{ ptr, i32, i32, i32, [4 x i8] }>
%class.u_map = type { %class.map }
%class.map = type { %class.table2map }
%class.table2map = type { %class.core_hashtable.4 }
%class.core_hashtable.4 = type <{ ptr, i32, i32, i32, [4 x i8] }>
%class.svector.6 = type { %class.vector.7 }
%class.vector.7 = type { ptr }
%class.ref_vector = type { %class.ref_vector_core }
%class.ref_vector_core = type { %class.ref_manager_wrapper, %class.ptr_vector }
%class.ref_manager_wrapper = type { ptr }
%class.ptr_vector = type { %class.vector.8 }
%class.vector.8 = type { ptr }
%class.obj_hashtable = type { %class.core_hashtable.base.10, [4 x i8] }
%class.core_hashtable.base.10 = type <{ ptr, i32, i32, i32 }>
%class.ref_vector.11 = type { %class.ref_vector_core.12 }
%class.ref_vector_core.12 = type { %class.ref_manager_wrapper.13, %class.ptr_vector.14 }
%class.ref_manager_wrapper.13 = type { ptr }
%class.ptr_vector.14 = type { %class.vector.15 }
%class.vector.15 = type { ptr }
%class.ref_vector.16 = type { %class.ref_vector_core.17 }
%class.ref_vector_core.17 = type { %class.ref_manager_wrapper.18, %class.ptr_vector.19 }
%class.ref_manager_wrapper.18 = type { ptr }
%class.ptr_vector.19 = type { %class.vector.20 }
%class.vector.20 = type { ptr }
%class.svector.2 = type { %class.vector.3 }
%class.vector.3 = type { ptr }
%"struct.goal2sat::imp::scoped_reset" = type { ptr }
%class.ast = type { i32, i32, i32, i32 }
%class.app = type { %class.expr, ptr, i32, %struct.app_flags, [0 x ptr] }
%class.expr = type { %class.ast }
%struct.app_flags = type <{ i16, i8, i8 }>
%class.decl = type { %class.ast, %class.symbol, ptr }
%class.decl_info = type <{ i32, i32, %class.vector.0, i8, [7 x i8] }>

; Function Attrs: mustprogress nounwind uwtable
define linkonce_odr hidden noundef zeroext i1 @_ZNK9decl_info10is_decl_ofEii(ptr noundef nonnull align 8 dereferenceable(17) %0, i32 noundef %1, i32 noundef %2) #4 comdat align 2 {
  %4 = alloca ptr, align 8
  %5 = alloca i32, align 4
  %6 = alloca i32, align 4
  store ptr %0, ptr %4, align 8, !tbaa !340
  store i32 %1, ptr %5, align 4, !tbaa !94
  store i32 %2, ptr %6, align 4, !tbaa !94
  %7 = load ptr, ptr %4, align 8
  %8 = getelementptr inbounds nuw %class.decl_info, ptr %7, i32 0, i32 0
  %9 = load i32, ptr %8, align 8, !tbaa !341
  %10 = load i32, ptr %5, align 4, !tbaa !94
  %11 = icmp eq i32 %9, %10
  br i1 %11, label %12, label %17

12:                                               ; preds = %3
  %13 = load i32, ptr %6, align 4, !tbaa !94
  %14 = getelementptr inbounds nuw %class.decl_info, ptr %7, i32 0, i32 1
  %15 = load i32, ptr %14, align 4, !tbaa !343
  %16 = icmp eq i32 %13, %15
  br label %17

17:                                               ; preds = %12, %3
  %18 = phi i1 [ false, %3 ], [ %16, %12 ]
  ret i1 %18
}

; Function Attrs: mustprogress uwtable
define linkonce_odr hidden noundef zeroext i1 @_ZNK4decl10is_decl_ofEii(ptr noundef nonnull align 8 dereferenceable(32) %0, i32 noundef %1, i32 noundef %2) #5 comdat align 2 {
  %4 = alloca ptr, align 8
  %5 = alloca i32, align 4
  %6 = alloca i32, align 4
  store ptr %0, ptr %4, align 8, !tbaa !335
  store i32 %1, ptr %5, align 4, !tbaa !94
  store i32 %2, ptr %6, align 4, !tbaa !94
  %7 = load ptr, ptr %4, align 8
  %8 = getelementptr inbounds nuw %class.decl, ptr %7, i32 0, i32 2
  %9 = load ptr, ptr %8, align 8, !tbaa !337
  %10 = icmp ne ptr %9, null
  br i1 %10, label %11, label %17

11:                                               ; preds = %3
  %12 = getelementptr inbounds nuw %class.decl, ptr %7, i32 0, i32 2
  %13 = load ptr, ptr %12, align 8, !tbaa !337
  %14 = load i32, ptr %5, align 4, !tbaa !94
  %15 = load i32, ptr %6, align 4, !tbaa !94
  %16 = call noundef zeroext i1 @_ZNK9decl_info10is_decl_ofEii(ptr noundef nonnull align 8 dereferenceable(17) %13, i32 noundef %14, i32 noundef %15)
  br label %17

17:                                               ; preds = %11, %3
  %18 = phi i1 [ false, %3 ], [ %16, %11 ]
  ret i1 %18
}

; Function Attrs: mustprogress uwtable
define linkonce_odr hidden noundef zeroext i1 @_ZNK3app9is_app_ofEii(ptr noundef nonnull align 8 dereferenceable(32) %0, i32 noundef %1, i32 noundef %2) #5 comdat align 2 {
  %4 = alloca ptr, align 8
  %5 = alloca i32, align 4
  %6 = alloca i32, align 4
  store ptr %0, ptr %4, align 8, !tbaa !203
  store i32 %1, ptr %5, align 4, !tbaa !94
  store i32 %2, ptr %6, align 4, !tbaa !94
  %7 = load ptr, ptr %4, align 8
  %8 = getelementptr inbounds nuw %class.app, ptr %7, i32 0, i32 1
  %9 = load ptr, ptr %8, align 8, !tbaa !331
  %10 = load i32, ptr %5, align 4, !tbaa !94
  %11 = load i32, ptr %6, align 4, !tbaa !94
  %12 = call noundef zeroext i1 @_ZNK4decl10is_decl_ofEii(ptr noundef nonnull align 8 dereferenceable(32) %9, i32 noundef %10, i32 noundef %11)
  ret i1 %12
}

; Function Attrs: mustprogress nounwind uwtable
define linkonce_odr hidden noundef i32 @_ZNK3ast8get_kindEv(ptr noundef nonnull align 4 dereferenceable(16) %0) #4 comdat align 2 {
  %2 = alloca ptr, align 8
  store ptr %0, ptr %2, align 8, !tbaa !316
  %3 = load ptr, ptr %2, align 8
  %4 = getelementptr inbounds nuw %class.ast, ptr %3, i32 0, i32 1
  %5 = load i32, ptr %4, align 4
  %6 = and i32 %5, 65535
  ret i32 %6
}

; Function Attrs: inlinehint mustprogress uwtable
define linkonce_odr hidden noundef zeroext i1 @_Z9is_app_ofPK4exprii(ptr noundef %0, i32 noundef %1, i32 noundef %2) #12 comdat {
  %4 = alloca ptr, align 8
  %5 = alloca i32, align 4
  %6 = alloca i32, align 4
  store ptr %0, ptr %4, align 8, !tbaa !120
  store i32 %1, ptr %5, align 4, !tbaa !94
  store i32 %2, ptr %6, align 4, !tbaa !94
  %7 = load ptr, ptr %4, align 8, !tbaa !120
  %8 = call noundef i32 @_ZNK3ast8get_kindEv(ptr noundef nonnull align 4 dereferenceable(16) %7)
  %9 = icmp eq i32 %8, 0
  br i1 %9, label %10, label %16

10:                                               ; preds = %3
  %11 = load ptr, ptr %4, align 8, !tbaa !120
  %12 = call noundef ptr @_Z6to_appPK3ast(ptr noundef %11)
  %13 = load i32, ptr %5, align 4, !tbaa !94
  %14 = load i32, ptr %6, align 4, !tbaa !94
  %15 = call noundef zeroext i1 @_ZNK3app9is_app_ofEii(ptr noundef nonnull align 8 dereferenceable(32) %12, i32 noundef %13, i32 noundef %14)
  br label %16

16:                                               ; preds = %10, %3
  %17 = phi i1 [ false, %3 ], [ %15, %10 ]
  ret i1 %17
}

; Function Attrs: mustprogress nounwind uwtable
define linkonce_odr hidden noundef ptr @_ZNK3app7get_argEj(ptr noundef nonnull align 8 dereferenceable(32) %0, i32 noundef %1) #4 comdat align 2 {
  %3 = alloca ptr, align 8
  %4 = alloca i32, align 4
  store ptr %0, ptr %3, align 8, !tbaa !203
  store i32 %1, ptr %4, align 4, !tbaa !94
  %5 = load ptr, ptr %3, align 8
  %6 = getelementptr inbounds nuw %class.app, ptr %5, i32 0, i32 4
  %7 = load i32, ptr %4, align 4, !tbaa !94
  %8 = zext i32 %7 to i64
  %9 = getelementptr inbounds nuw [0 x ptr], ptr %6, i64 0, i64 %8
  %10 = load ptr, ptr %9, align 8, !tbaa !120
  ret ptr %10
}

; Function Attrs: mustprogress nounwind uwtable
define linkonce_odr hidden noundef i32 @_ZNK3app12get_num_argsEv(ptr noundef nonnull align 8 dereferenceable(32) %0) #4 comdat align 2 {
  %2 = alloca ptr, align 8
  store ptr %0, ptr %2, align 8, !tbaa !203
  %3 = load ptr, ptr %2, align 8
  %4 = getelementptr inbounds nuw %class.app, ptr %3, i32 0, i32 2
  %5 = load i32, ptr %4, align 8, !tbaa !358
  ret i32 %5
}

; Function Attrs: inlinehint mustprogress nounwind uwtable
define linkonce_odr hidden noundef ptr @_Z6to_appPK3ast(ptr noundef %0) #10 comdat {
  %2 = alloca ptr, align 8
  store ptr %0, ptr %2, align 8, !tbaa !316
  %3 = load ptr, ptr %2, align 8, !tbaa !316
  ret ptr %3
}

; Function Attrs: mustprogress uwtable
define linkonce_odr hidden noundef zeroext i1 @_ZNK11ast_manager6is_notEPK4expr(ptr noundef nonnull align 8 dereferenceable(976) %0, ptr noundef %1) #5 comdat align 2 {
  %3 = alloca ptr, align 8
  %4 = alloca ptr, align 8
  store ptr %0, ptr %3, align 8, !tbaa !85
  store ptr %1, ptr %4, align 8, !tbaa !120
  %5 = load ptr, ptr %4, align 8, !tbaa !120
  %6 = call noundef zeroext i1 @_Z9is_app_ofPK4exprii(ptr noundef %5, i32 noundef 0, i32 noundef 8)
  ret i1 %6
}

; Function Attrs: mustprogress uwtable
define linkonce_odr hidden noundef zeroext i1 @_ZNK11ast_manager6is_notEPK4exprRPS0_(ptr noundef nonnull align 8 dereferenceable(976) %0, ptr noundef %1, ptr noundef nonnull align 8 dereferenceable(8) %2) #5 comdat align 2 {
  %4 = alloca i1, align 1
  %5 = alloca ptr, align 8
  %6 = alloca ptr, align 8
  %7 = alloca ptr, align 8
  store ptr %0, ptr %5, align 8, !tbaa !85
  store ptr %1, ptr %6, align 8, !tbaa !120
  store ptr %2, ptr %7, align 8, !tbaa !119
  %8 = load ptr, ptr %5, align 8
  %9 = load ptr, ptr %6, align 8, !tbaa !120
  %10 = call noundef zeroext i1 @_ZNK11ast_manager6is_notEPK4expr(ptr noundef nonnull align 8 dereferenceable(976) %8, ptr noundef %9)
  br i1 %10, label %11, label %21

11:                                               ; preds = %3
  %12 = load ptr, ptr %6, align 8, !tbaa !120
  %13 = call noundef ptr @_Z6to_appPK3ast(ptr noundef %12)
  %14 = call noundef i32 @_ZNK3app12get_num_argsEv(ptr noundef nonnull align 8 dereferenceable(32) %13)
  %15 = icmp eq i32 %14, 1
  br i1 %15, label %16, label %21

16:                                               ; preds = %11
  %17 = load ptr, ptr %6, align 8, !tbaa !120
  %18 = call noundef ptr @_Z6to_appPK3ast(ptr noundef %17)
  %19 = call noundef ptr @_ZNK3app7get_argEj(ptr noundef nonnull align 8 dereferenceable(32) %18, i32 noundef 0)
  %20 = load ptr, ptr %7, align 8, !tbaa !119
  store ptr %19, ptr %20, align 8, !tbaa !120
  store i1 true, ptr %4, align 1
  br label %22

21:                                               ; preds = %11, %3
  store i1 false, ptr %4, align 1
  br label %22

22:                                               ; preds = %21, %16
  %23 = load i1, ptr %4, align 1
  ret i1 %23
}

; Function Attrs: mustprogress nounwind uwtable
define linkonce_odr hidden void @_ZN8goal2sat3imp12scoped_resetC2ERS0_(ptr noundef nonnull align 8 dereferenceable(8) %0, ptr noundef nonnull align 8 dereferenceable(300) %1) unnamed_addr #4 comdat align 2 {
  %3 = alloca ptr, align 8
  %4 = alloca ptr, align 8
  store ptr %0, ptr %3, align 8, !tbaa !599
  store ptr %1, ptr %4, align 8, !tbaa !15
  %5 = load ptr, ptr %3, align 8
  %6 = getelementptr inbounds nuw %"struct.goal2sat::imp::scoped_reset", ptr %5, i32 0, i32 0
  %7 = load ptr, ptr %4, align 8, !tbaa !15
  store ptr %7, ptr %6, align 8, !tbaa !15
  ret void
}

; Function Attrs: mustprogress uwtable
define linkonce_odr hidden void @_ZN8goal2sat3imp11assumptionsEjPKP4expr(ptr noundef nonnull align 8 dereferenceable(300) %0, i32 noundef %1, ptr noundef %2) #5 comdat align 2 personality ptr @__gxx_personality_v0 {
  %4 = alloca ptr, align 8
  %5 = alloca i32, align 4
  %6 = alloca ptr, align 8
  %7 = alloca %"struct.goal2sat::imp::scoped_reset", align 8
  %8 = alloca i32, align 4
  %9 = alloca ptr, align 8
  %10 = alloca ptr, align 8
  %11 = alloca i8, align 1
  %12 = alloca ptr, align 8
  %13 = alloca i32, align 4
  store ptr %0, ptr %4, align 8, !tbaa !15
  store i32 %1, ptr %5, align 4, !tbaa !94
  store ptr %2, ptr %6, align 8, !tbaa !119
  %14 = load ptr, ptr %4, align 8
  call void @llvm.lifetime.start.p0(i64 8, ptr %7) #3
  call void @_ZN8goal2sat3imp12scoped_resetC2ERS0_(ptr noundef nonnull align 8 dereferenceable(8) %7, ptr noundef nonnull align 8 dereferenceable(300) %14)
  call void @llvm.lifetime.start.p0(i64 4, ptr %8) #3
  store i32 0, ptr %8, align 4, !tbaa !94
  br label %15

15:                                               ; preds = %38, %3
  %16 = load i32, ptr %8, align 4, !tbaa !94
  %17 = load i32, ptr %5, align 4, !tbaa !94
  %18 = icmp ult i32 %16, %17
  br i1 %18, label %20, label %19

19:                                               ; preds = %15
  call void @llvm.lifetime.end.p0(i64 4, ptr %8) #3
  br label %45

20:                                               ; preds = %15
  call void @llvm.lifetime.start.p0(i64 8, ptr %9) #3
  %21 = load ptr, ptr %6, align 8, !tbaa !119
  %22 = load i32, ptr %8, align 4, !tbaa !94
  %23 = zext i32 %22 to i64
  %24 = getelementptr inbounds nuw ptr, ptr %21, i64 %23
  %25 = load ptr, ptr %24, align 8, !tbaa !120
  store ptr %25, ptr %9, align 8, !tbaa !120
  call void @llvm.lifetime.start.p0(i64 8, ptr %10) #3
  %26 = load ptr, ptr %9, align 8, !tbaa !120
  store ptr %26, ptr %10, align 8, !tbaa !120
  call void @llvm.lifetime.start.p0(i64 1, ptr %11) #3
  %27 = getelementptr inbounds nuw %"struct.goal2sat::imp", ptr %14, i32 0, i32 1
  %28 = load ptr, ptr %27, align 8, !tbaa !82
  %29 = load ptr, ptr %9, align 8, !tbaa !120
  %30 = invoke noundef zeroext i1 @_ZNK11ast_manager6is_notEPK4exprRPS0_(ptr noundef nonnull align 8 dereferenceable(976) %28, ptr noundef %29, ptr noundef nonnull align 8 dereferenceable(8) %10)
          to label %31 unwind label %41

31:                                               ; preds = %20
  %32 = zext i1 %30 to i8
  store i8 %32, ptr %11, align 1, !tbaa !91
  %33 = load ptr, ptr %9, align 8, !tbaa !120
  %34 = load ptr, ptr %10, align 8, !tbaa !120
  %35 = load i8, ptr %11, align 1, !tbaa !91, !range !92, !noundef !93
  %36 = trunc i8 %35 to i1
  invoke void @_ZN8goal2sat3imp10insert_depEP4exprS2_b(ptr noundef nonnull align 8 dereferenceable(300) %14, ptr noundef %33, ptr noundef %34, i1 noundef zeroext %36)
          to label %37 unwind label %41

37:                                               ; preds = %31
  call void @llvm.lifetime.end.p0(i64 1, ptr %11) #3
  call void @llvm.lifetime.end.p0(i64 8, ptr %10) #3
  call void @llvm.lifetime.end.p0(i64 8, ptr %9) #3
  br label %38

38:                                               ; preds = %37
  %39 = load i32, ptr %8, align 4, !tbaa !94
  %40 = add i32 %39, 1
  store i32 %40, ptr %8, align 4, !tbaa !94
  br label %15, !llvm.loop !124

41:                                               ; preds = %31, %20
  %42 = landingpad { ptr, i32 }
          cleanup
  %43 = extractvalue { ptr, i32 } %42, 0
  store ptr %43, ptr %12, align 8
  %44 = extractvalue { ptr, i32 } %42, 1
  store i32 %44, ptr %13, align 4
  call void @llvm.lifetime.end.p0(i64 1, ptr %11) #3
  call void @llvm.lifetime.end.p0(i64 8, ptr %10) #3
  call void @llvm.lifetime.end.p0(i64 8, ptr %9) #3
  call void @llvm.lifetime.end.p0(i64 4, ptr %8) #3
  call void @_ZN8goal2sat3imp12scoped_resetD2Ev(ptr noundef nonnull align 8 dereferenceable(8) %7) #3
  call void @llvm.lifetime.end.p0(i64 8, ptr %7) #3
  br label %46

45:                                               ; preds = %19
  call void @_ZN8goal2sat3imp12scoped_resetD2Ev(ptr noundef nonnull align 8 dereferenceable(8) %7) #3
  call void @llvm.lifetime.end.p0(i64 8, ptr %7) #3
  ret void

46:                                               ; preds = %41
  %47 = load ptr, ptr %12, align 8
  %48 = load i32, ptr %13, align 4
  %49 = insertvalue { ptr, i32 } poison, ptr %47, 0
  %50 = insertvalue { ptr, i32 } %49, i32 %48, 1
  resume { ptr, i32 } %50
}

; Function Attrs: mustprogress uwtable
define hidden void @_ZN8goal2sat11assumptionsEjPKP4expr(ptr noundef nonnull align 8 dereferenceable(12) %0, i32 noundef %1, ptr noundef %2) #5 align 2 {
  %4 = alloca ptr, align 8
  %5 = alloca i32, align 4
  %6 = alloca ptr, align 8
  store ptr %0, ptr %4, align 8, !tbaa !8
  store i32 %1, ptr %5, align 4, !tbaa !94
  store ptr %2, ptr %6, align 8, !tbaa !119
  %7 = load ptr, ptr %4, align 8
  %8 = getelementptr inbounds nuw %class.goal2sat, ptr %7, i32 0, i32 0
  %9 = load ptr, ptr %8, align 8, !tbaa !10
  %10 = load i32, ptr %5, align 4, !tbaa !94
  %11 = load ptr, ptr %6, align 8, !tbaa !119
  call void @_ZN8goal2sat3imp11assumptionsEjPKP4expr(ptr noundef nonnull align 8 dereferenceable(300) %9, i32 noundef %10, ptr noundef %11)
  ret void
}