; Function Attrs: mustprogress uwtable
define hidden void @_ZN8goal2sat11assumptionsEjPKP4expr(ptr noundef nonnull readonly align 8 captures(none) dereferenceable(12) %0, i32 noundef %1, ptr noundef readonly captures(none) %2) local_unnamed_addr #8 align 2 personality ptr @__gxx_personality_v0 {
  %4 = alloca %"struct.goal2sat::imp::scoped_reset", align 8
  %5 = load ptr, ptr %0, align 8, !tbaa !3
  call void @llvm.lifetime.start.p0(i64 8, ptr nonnull %4) #25
  store ptr %5, ptr %4, align 8, !tbaa !142
  %.not.i = icmp eq i32 %1, 0
  br i1 %.not.i, label %_ZN8goal2sat3imp11assumptionsEjPKP4expr.exit, label %.lr.ph.preheader.i

.lr.ph.preheader.i:                               ; preds = %3
  %wide.trip.count.i = zext i32 %1 to i64
  br label %.lr.ph.i

.lr.ph.i:                                         ; preds = %30, %.lr.ph.preheader.i
  %indvars.iv.i = phi i64 [ 0, %.lr.ph.preheader.i ], [ %indvars.iv.next.i, %30 ]
  %6 = getelementptr inbounds nuw ptr, ptr %2, i64 %indvars.iv.i
  %7 = load ptr, ptr %6, align 8, !tbaa !159
  %8 = getelementptr inbounds nuw i8, ptr %7, i64 4
  %9 = load i32, ptr %8, align 4
  %10 = and i32 %9, 65535
  %11 = icmp eq i32 %10, 0
  br i1 %11, label %12, label %_ZNK11ast_manager6is_notEPK4exprRPS0_.exit.i

12:                                               ; preds = %.lr.ph.i
  %13 = getelementptr inbounds nuw i8, ptr %7, i64 16
  %14 = load ptr, ptr %13, align 8, !tbaa !162
  %15 = getelementptr inbounds nuw i8, ptr %14, i64 24
  %16 = load ptr, ptr %15, align 8, !tbaa !167
  %.not.i.i.i.i.i.i = icmp eq ptr %16, null
  br i1 %.not.i.i.i.i.i.i, label %_ZNK11ast_manager6is_notEPK4exprRPS0_.exit.i, label %_ZNK11ast_manager6is_notEPK4expr.exit.i.i

_ZNK11ast_manager6is_notEPK4expr.exit.i.i:        ; preds = %12
  %17 = load i32, ptr %16, align 8, !tbaa !170
  %18 = icmp eq i32 %17, 0
  %19 = getelementptr inbounds nuw i8, ptr %16, i64 4
  %20 = load i32, ptr %19, align 4
  %21 = icmp eq i32 %20, 8
  %22 = select i1 %18, i1 %21, i1 false
  br i1 %22, label %23, label %_ZNK11ast_manager6is_notEPK4exprRPS0_.exit.i

23:                                               ; preds = %_ZNK11ast_manager6is_notEPK4expr.exit.i.i
  %24 = getelementptr inbounds nuw i8, ptr %7, i64 24
  %25 = load i32, ptr %24, align 8, !tbaa !172
  %26 = icmp eq i32 %25, 1
  br i1 %26, label %27, label %_ZNK11ast_manager6is_notEPK4exprRPS0_.exit.i

27:                                               ; preds = %23
  %28 = getelementptr inbounds nuw i8, ptr %7, i64 32
  %29 = load ptr, ptr %28, align 8, !tbaa !159
  br label %_ZNK11ast_manager6is_notEPK4exprRPS0_.exit.i

_ZNK11ast_manager6is_notEPK4exprRPS0_.exit.i:     ; preds = %27, %23, %_ZNK11ast_manager6is_notEPK4expr.exit.i.i, %12, %.lr.ph.i
  %.011.i = phi ptr [ %7, %12 ], [ %29, %27 ], [ %7, %23 ], [ %7, %_ZNK11ast_manager6is_notEPK4expr.exit.i.i ], [ %7, %.lr.ph.i ]
  %.0.i.i = phi i1 [ false, %12 ], [ true, %27 ], [ false, %23 ], [ false, %_ZNK11ast_manager6is_notEPK4expr.exit.i.i ], [ false, %.lr.ph.i ]
  invoke void @_ZN8goal2sat3imp10insert_depEP4exprS2_b(ptr noundef nonnull align 8 dereferenceable(300) %5, ptr noundef nonnull %7, ptr noundef %.011.i, i1 noundef zeroext %.0.i.i)
          to label %30 unwind label %31

30:                                               ; preds = %_ZNK11ast_manager6is_notEPK4exprRPS0_.exit.i
  %indvars.iv.next.i = add nuw nsw i64 %indvars.iv.i, 1
  %exitcond.not.i = icmp eq i64 %indvars.iv.next.i, %wide.trip.count.i
  br i1 %exitcond.not.i, label %_ZN8goal2sat3imp11assumptionsEjPKP4expr.exit, label %.lr.ph.i, !llvm.loop !176

31:                                               ; preds = %_ZNK11ast_manager6is_notEPK4exprRPS0_.exit.i
  %32 = landingpad { ptr, i32 }
          cleanup
  call void @_ZN8goal2sat3imp12scoped_resetD2Ev(ptr noundef nonnull align 8 dereferenceable(8) %4) #25
  call void @llvm.lifetime.end.p0(i64 8, ptr nonnull %4) #25
  resume { ptr, i32 } %32

_ZN8goal2sat3imp11assumptionsEjPKP4expr.exit:     ; preds = %30, %3
  call void @_ZN8goal2sat3imp12scoped_resetD2Ev(ptr noundef nonnull align 8 dereferenceable(8) %4) #25
  call void @llvm.lifetime.end.p0(i64 8, ptr nonnull %4) #25
  ret void
}